target datalayout = "e-m:e-p270:32:32-p271:32:32-p272:64:64-i64:64-i128:128-f80:128-n8:16:32:64-S128"
target triple = "x86_64-pc-linux-gnu"

%struct.cl_engine = type { i32, i32, i32, [2 x i32], i32, i32, i32, ptr, i32, i64, i32, i32, i64, i64, i32, i32, i32, i32, ptr, ptr, ptr, ptr, ptr, ptr, ptr, ptr, ptr, ptr, ptr, ptr, ptr, ptr, ptr, ptr, ptr, ptr, ptr, i64, ptr, %struct.crtmgr, ptr, ptr, ptr, ptr, ptr, ptr, ptr, ptr, ptr, ptr, ptr, ptr, ptr, ptr, ptr, ptr, ptr, %struct.cli_all_bc, [7 x ptr], [7 x i32], i32, i32, i32, i32, i64, i64, i64, i64, i64, ptr, ptr, ptr, ptr, ptr, ptr, ptr, ptr, ptr, i32, i32, i32, i64, i64, i64, ptr }
%struct.crtmgr = type { ptr, i32 }
%struct.cli_all_bc = type { ptr, i32, ptr, %struct.cli_environment, i32 }
%struct.cli_environment = type { i32, i32, i32, i32, i32, i32, i32, [65 x i8], [65 x i8], [65 x i8], [65 x i8], [65 x i8], [65 x i8], [65 x i8], i8, i8, i8, i8, i8, i8, i8, i8, i8 }
%struct.cli_dconf = type { i32, i32, i32, i32, i32, i32, i32, i32, i32, i32, i32 }
%struct.regex_matcher = type { %struct.cli_hashtable, i64, ptr, i64, i64, ptr, %struct.cli_matcher, %struct.cli_matcher, %struct.cli_hashset, %struct.cli_matcher, %struct.filter, ptr, i8 }
%struct.cli_hashtable = type { ptr, i64, i64, i64 }
%struct.cli_hashset = type { ptr, ptr, ptr, i32, i32, i32, i32 }
%struct.cli_matcher = type { i32, ptr, ptr, ptr, ptr, i32, i32, i32, i32, i32, %struct.cli_hash_patt, %struct.cli_hash_wild, i32, i32, i32, i32, i32, ptr, ptr, ptr, ptr, ptr, ptr, i32, i32, i8, i8, ptr, i16, i8, i32, ptr, i32, i32, i32, ptr, ptr, i32, ptr, i64, i64, ptr }
%struct.cli_hash_patt = type { [3 x %struct.cli_htu32] }
%struct.cli_htu32 = type { ptr, i64, i64, i64 }
%struct.cli_hash_wild = type { [3 x %struct.cli_sz_hash] }
%struct.cli_sz_hash = type { ptr, ptr, i32 }
%struct.filter = type { [65536 x i8], [65536 x i8], i64 }

@.str.40 = private unnamed_addr constant [38 x i8] c"fc_test_database: Invalid arguments.\0A\00", align 1
@.str.41 = private unnamed_addr constant [28 x i8] c"Loading signatures from %s\0A\00", align 1
@.str.42 = private unnamed_addr constant [33 x i8] c"Failed to load new database: %s\0A\00", align 1
@.str.43 = private unnamed_addr constant [37 x i8] c"Failed to compile/load bytecode: %s\0A\00", align 1
@.str.44 = private unnamed_addr constant [39 x i8] c"Properly loaded %u signatures from %s\0A\00", align 1

; Function Attrs: nounwind uwtable
define i32 @fc_test_database(ptr noundef %0, i32 noundef %1) #0 {
  %3 = alloca ptr, align 8
  %4 = alloca i32, align 4
  %5 = alloca i32, align 4
  %6 = alloca ptr, align 8
  %7 = alloca i32, align 4
  %8 = alloca i32, align 4
  store ptr %0, ptr %3, align 8
  store i32 %1, ptr %4, align 4
  store i32 16, ptr %5, align 4
  store ptr null, ptr %6, align 8
  store i32 0, ptr %7, align 4
  %9 = load ptr, ptr %3, align 8
  %10 = icmp eq ptr null, %9
  br i1 %10, label %11, label %13

11:                                               ; preds = %2
  %12 = call i32 (i32, ptr, ...) @logg(i32 noundef 4, ptr noundef @.str.40)
  br label %55

13:                                               ; preds = %2
  %14 = load ptr, ptr %3, align 8
  %15 = call i32 (i32, ptr, ...) @logg(i32 noundef 2, ptr noundef @.str.41, ptr noundef %14)
  %16 = call ptr @cl_engine_new()
  store ptr %16, ptr %6, align 8
  %17 = icmp eq ptr null, %16
  br i1 %17, label %18, label %19

18:                                               ; preds = %13
  store i32 8, ptr %5, align 4
  br label %55

19:                                               ; preds = %13
  %20 = load ptr, ptr %6, align 8
  %21 = getelementptr inbounds %struct.cl_engine, ptr %20, i32 0, i32 9
  %22 = load i64, ptr %21, align 8
  %23 = or i64 %22, 1
  store i64 %23, ptr %21, align 8
  %24 = load ptr, ptr %6, align 8
  call void @cl_engine_set_clcb_stats_submit(ptr noundef %24, ptr noundef null)
  %25 = load ptr, ptr %3, align 8
  %26 = load ptr, ptr %6, align 8
  %27 = call i32 @cl_load(ptr noundef %25, ptr noundef %26, ptr noundef %7, i32 noundef 270362)
  store i32 %27, ptr %8, align 4
  %28 = icmp ne i32 0, %27
  br i1 %28, label %29, label %33

29:                                               ; preds = %19
  %30 = load i32, ptr %8, align 4
  %31 = call ptr @cl_strerror(i32 noundef %30)
  %32 = call i32 (i32, ptr, ...) @logg(i32 noundef 5, ptr noundef @.str.42, ptr noundef %31)
  store i32 8, ptr %5, align 4
  br label %55

33:                                               ; preds = %19
  %34 = load i32, ptr %4, align 4
  %35 = icmp ne i32 %34, 0
  br i1 %35, label %36, label %51

36:                                               ; preds = %33
  %37 = load ptr, ptr %6, align 8
  %38 = load ptr, ptr %6, align 8
  %39 = getelementptr inbounds %struct.cl_engine, ptr %38, i32 0, i32 57
  %40 = load ptr, ptr %6, align 8
  %41 = getelementptr inbounds %struct.cl_engine, ptr %40, i32 0, i32 27
  %42 = load ptr, ptr %41, align 8
  %43 = getelementptr inbounds %struct.cli_dconf, ptr %42, i32 0, i32 8
  %44 = load i32, ptr %43, align 4
  %45 = call i32 @cli_bytecode_prepare2(ptr noundef %37, ptr noundef %39, i32 noundef %44)
  store i32 %45, ptr %8, align 4
  %46 = icmp ne i32 0, %45
  br i1 %46, label %47, label %51

47:                                               ; preds = %36
  %48 = load i32, ptr %8, align 4
  %49 = call ptr @cl_strerror(i32 noundef %48)
  %50 = call i32 (i32, ptr, ...) @logg(i32 noundef 5, ptr noundef @.str.43, ptr noundef %49)
  store i32 8, ptr %5, align 4
  br label %55

51:                                               ; preds = %36, %33
  %52 = load i32, ptr %7, align 4
  %53 = load ptr, ptr %3, align 8
  %54 = call i32 (i32, ptr, ...) @logg(i32 noundef 2, ptr noundef @.str.44, i32 noundef %52, ptr noundef %53)
  store i32 0, ptr %5, align 4
  br label %55

55:                                               ; preds = %51, %47, %29, %18, %11
  %56 = load ptr, ptr %6, align 8
  %57 = icmp ne ptr null, %56
  br i1 %57, label %58, label %79

58:                                               ; preds = %55
  %59 = load ptr, ptr %6, align 8
  %60 = getelementptr inbounds %struct.cl_engine, ptr %59, i32 0, i32 25
  %61 = load ptr, ptr %60, align 8
  %62 = icmp ne ptr %61, null
  br i1 %62, label %63, label %76

63:                                               ; preds = %58
  %64 = load ptr, ptr %6, align 8
  %65 = getelementptr inbounds %struct.cl_engine, ptr %64, i32 0, i32 25
  %66 = load ptr, ptr %65, align 8
  %67 = getelementptr inbounds %struct.regex_matcher, ptr %66, i32 0, i32 8
  %68 = getelementptr inbounds %struct.cli_hashset, ptr %67, i32 0, i32 0
  %69 = load ptr, ptr %68, align 8
  %70 = icmp ne ptr %69, null
  br i1 %70, label %71, label %76

71:                                               ; preds = %63
  %72 = load ptr, ptr %6, align 8
  %73 = getelementptr inbounds %struct.cl_engine, ptr %72, i32 0, i32 25
  %74 = load ptr, ptr %73, align 8
  %75 = getelementptr inbounds %struct.regex_matcher, ptr %74, i32 0, i32 8
  call void @cli_hashset_destroy(ptr noundef %75)
  br label %76

76:                                               ; preds = %71, %63, %58
  %77 = load ptr, ptr %6, align 8
  %78 = call i32 @cl_engine_free(ptr noundef %77)
  br label %79

79:                                               ; preds = %76, %55
  %80 = load i32, ptr %5, align 4
  ret i32 %80
}