; Function Attrs: nounwind uwtable
define range(i32 0, 17) i32 @fc_test_database(ptr noundef %0, i32 noundef %1) local_unnamed_addr #1 {
  %3 = alloca i32, align 4
  store i32 0, ptr %3, align 4
  %4 = icmp eq ptr %0, null
  br i1 %4, label %5, label %7

5:                                                ; preds = %2
  %6 = tail call i32 (i32, ptr, ...) @logg(i32 noundef 4, ptr noundef nonnull @.str.40) #15
  br label %42

7:                                                ; preds = %2
  %8 = tail call i32 (i32, ptr, ...) @logg(i32 noundef 2, ptr noundef nonnull @.str.41, ptr noundef nonnull %0) #15
  %9 = tail call ptr @cl_engine_new() #15
  %10 = icmp eq ptr %9, null
  br i1 %10, label %42, label %11

11:                                               ; preds = %7
  %12 = getelementptr inbounds nuw i8, ptr %9, i64 48
  %13 = load i64, ptr %12, align 8
  %14 = or i64 %13, 1
  store i64 %14, ptr %12, align 8
  tail call void @cl_engine_set_clcb_stats_submit(ptr noundef nonnull %9, ptr noundef null) #15
  %15 = call i32 @cl_load(ptr noundef nonnull %0, ptr noundef nonnull %9, ptr noundef nonnull %3, i32 noundef 270362) #15
  %.not = icmp eq i32 %15, 0
  br i1 %.not, label %19, label %16

16:                                               ; preds = %11
  %17 = call ptr @cl_strerror(i32 noundef %15) #15
  %18 = call i32 (i32, ptr, ...) @logg(i32 noundef 5, ptr noundef nonnull @.str.42, ptr noundef %17) #15
  br label %33

19:                                               ; preds = %11
  %.not24 = icmp eq i32 %1, 0
  br i1 %.not24, label %30, label %20

20:                                               ; preds = %19
  %21 = getelementptr inbounds nuw i8, ptr %9, i64 416
  %22 = getelementptr inbounds nuw i8, ptr %9, i64 168
  %23 = load ptr, ptr %22, align 8
  %24 = getelementptr inbounds nuw i8, ptr %23, i64 32
  %25 = load i32, ptr %24, align 4
  %26 = call i32 @cli_bytecode_prepare2(ptr noundef nonnull %9, ptr noundef nonnull %21, i32 noundef %25) #15
  %.not25 = icmp eq i32 %26, 0
  br i1 %.not25, label %30, label %27

27:                                               ; preds = %20
  %28 = call ptr @cl_strerror(i32 noundef %26) #15
  %29 = call i32 (i32, ptr, ...) @logg(i32 noundef 5, ptr noundef nonnull @.str.43, ptr noundef %28) #15
  br label %33

30:                                               ; preds = %20, %19
  %31 = load i32, ptr %3, align 4
  %32 = call i32 (i32, ptr, ...) @logg(i32 noundef 2, ptr noundef nonnull @.str.44, i32 noundef %31, ptr noundef nonnull %0) #15
  br label %33

33:                                               ; preds = %16, %27, %30
  %.018.ph = phi i32 [ 0, %30 ], [ 8, %27 ], [ 8, %16 ]
  %34 = getelementptr inbounds nuw i8, ptr %9, i64 152
  %35 = load ptr, ptr %34, align 8
  %.not27 = icmp eq ptr %35, null
  br i1 %.not27, label %40, label %36

36:                                               ; preds = %33
  %37 = getelementptr inbounds nuw i8, ptr %35, i64 904
  %38 = load ptr, ptr %37, align 8
  %.not28 = icmp eq ptr %38, null
  br i1 %.not28, label %40, label %39

39:                                               ; preds = %36
  call void @cli_hashset_destroy(ptr noundef nonnull %37) #15
  br label %40

40:                                               ; preds = %39, %36, %33
  %41 = call i32 @cl_engine_free(ptr noundef nonnull %9) #15
  br label %42

42:                                               ; preds = %5, %7, %40
  %.01833 = phi i32 [ %.018.ph, %40 ], [ 16, %5 ], [ 8, %7 ]
  ret i32 %.01833
}